target datalayout = "e-m:e-p270:32:32-p271:32:32-p272:64:64-i64:64-i128:128-f80:128-n8:16:32:64-S128"
target triple = "x86_64-pc-linux-gnu"

@.str = private unnamed_addr constant [37 x i8] c"%s: %s: mpi/pmi2: in handle_pmi1_cmd\00", align 1
@plugin_type = external constant [0 x i8], align 1
@__func__.handle_pmi1_cmd = private unnamed_addr constant [16 x i8] c"handle_pmi1_cmd\00", align 1
@.str.1 = private unnamed_addr constant [7 x i8] c"pmi1.c\00", align 1
@.str.2 = private unnamed_addr constant [38 x i8] c"mpi/pmi2: failed to read PMI1 request\00", align 1
@.str.3 = private unnamed_addr constant [24 x i8] c"mpi/pmi2: read length 0\00", align 1
@.str.4 = private unnamed_addr constant [6 x i8] c"mcmd=\00", align 1
@.str.5 = private unnamed_addr constant [38 x i8] c"%s: %s: mpi/pmi2: out handle_pmi1_cmd\00", align 1
@.str.6 = private unnamed_addr constant [8 x i8] c"endcmd\0A\00", align 1
@__func__._handle_pmi1_mcmd_buf = private unnamed_addr constant [22 x i8] c"_handle_pmi1_mcmd_buf\00", align 1
@.str.7 = private unnamed_addr constant [40 x i8] c"%s: %s: mpi/pmi2: read partial mcmd: %s\00", align 1
@.str.8 = private unnamed_addr constant [29 x i8] c"mpi/pmi2: this is impossible\00", align 1

; Function Attrs: nounwind uwtable
define internal i32 @_handle_pmi1_mcmd_buf(i32 noundef %0, i32 noundef %1, i32 noundef %2, i32 noundef %3, ptr noundef %4) #0 {
  %6 = alloca i32, align 4
  %7 = alloca i32, align 4
  %8 = alloca i32, align 4
  %9 = alloca i32, align 4
  %10 = alloca i32, align 4
  %11 = alloca ptr, align 8
  %12 = alloca i32, align 4
  %13 = alloca i32, align 4
  %14 = alloca i32, align 4
  %15 = alloca i32, align 4
  %16 = alloca ptr, align 8
  %17 = alloca ptr, align 8
  %18 = alloca ptr, align 8
  %19 = alloca ptr, align 8
  %20 = alloca i32, align 4
  %21 = alloca i32, align 4
  store i32 %0, ptr %7, align 4
  store i32 %1, ptr %8, align 4
  store i32 %2, ptr %9, align 4
  store i32 %3, ptr %10, align 4
  store ptr %4, ptr %11, align 8
  call void @llvm.lifetime.start.p0(i64 4, ptr %12) #6
  call void @llvm.lifetime.start.p0(i64 4, ptr %13) #6
  call void @llvm.lifetime.start.p0(i64 4, ptr %14) #6
  call void @llvm.lifetime.start.p0(i64 4, ptr %15) #6
  call void @llvm.lifetime.start.p0(i64 8, ptr %16) #6
  store ptr null, ptr %16, align 8
  call void @llvm.lifetime.start.p0(i64 8, ptr %17) #6
  store ptr null, ptr %17, align 8
  call void @llvm.lifetime.start.p0(i64 8, ptr %18) #6
  store ptr null, ptr %18, align 8
  call void @llvm.lifetime.start.p0(i64 8, ptr %19) #6
  call void @llvm.lifetime.start.p0(i64 4, ptr %20) #6
  store i32 0, ptr %20, align 4
  %22 = load ptr, ptr %11, align 8
  %23 = load ptr, ptr %22, align 8
  store ptr %23, ptr %19, align 8
  %24 = load i32, ptr %10, align 4
  store i32 %24, ptr %12, align 4
  store i32 7, ptr %14, align 4
  %25 = load ptr, ptr %19, align 8
  %26 = load i32, ptr %12, align 4
  %27 = load i32, ptr %14, align 4
  %28 = sub nsw i32 %26, %27
  %29 = sext i32 %28 to i64
  %30 = getelementptr inbounds i8, ptr %25, i64 %29
  %31 = load i32, ptr %14, align 4
  %32 = sext i32 %31 to i64
  %33 = call i32 @slurm_xstrncmp(ptr noundef %30, ptr noundef @.str.6, i64 noundef %32)
  store i32 %33, ptr %15, align 4
  br label %34

34:                                               ; preds = %106, %5
  %35 = load i32, ptr %15, align 4
  %36 = icmp ne i32 %35, 0
  br i1 %36, label %37, label %107

37:                                               ; preds = %34
  %38 = load i32, ptr %12, align 4
  %39 = load i32, ptr %9, align 4
  %40 = icmp eq i32 %38, %39
  br i1 %40, label %41, label %50

41:                                               ; preds = %37
  %42 = load i32, ptr %9, align 4
  %43 = add nsw i32 %42, 1024
  store i32 %43, ptr %9, align 4
  %44 = load i32, ptr %9, align 4
  %45 = add nsw i32 %44, 1
  %46 = sext i32 %45 to i64
  %47 = call ptr @slurm_xrecalloc(ptr noundef %19, i64 noundef 1, i64 noundef %46, i1 noundef zeroext true, i1 noundef zeroext false, ptr noundef @.str.1, i32 noundef 562, ptr noundef @__func__._handle_pmi1_mcmd_buf)
  %48 = load ptr, ptr %19, align 8
  %49 = load ptr, ptr %11, align 8
  store ptr %48, ptr %49, align 8
  br label %50

50:                                               ; preds = %41, %37
  br label %51

51:                                               ; preds = %70, %50
  %52 = load i32, ptr %7, align 4
  %53 = load ptr, ptr %19, align 8
  %54 = load i32, ptr %12, align 4
  %55 = sext i32 %54 to i64
  %56 = getelementptr inbounds i8, ptr %53, i64 %55
  %57 = load i32, ptr %9, align 4
  %58 = load i32, ptr %12, align 4
  %59 = sub nsw i32 %57, %58
  %60 = sext i32 %59 to i64
  %61 = call i64 @read(i32 noundef %52, ptr noundef %56, i64 noundef %60)
  %62 = trunc i64 %61 to i32
  store i32 %62, ptr %13, align 4
  %63 = icmp slt i32 %62, 0
  br i1 %63, label %64, label %68

64:                                               ; preds = %51
  %65 = call ptr @__errno_location() #7
  %66 = load i32, ptr %65, align 4
  %67 = icmp eq i32 %66, 4
  br label %68

68:                                               ; preds = %64, %51
  %69 = phi i1 [ false, %51 ], [ %67, %64 ]
  br i1 %69, label %70, label %71

70:                                               ; preds = %68
  br label %51, !llvm.loop !11

71:                                               ; preds = %68
  %72 = load i32, ptr %13, align 4
  %73 = icmp slt i32 %72, 0
  br i1 %73, label %74, label %76

74:                                               ; preds = %71
  %75 = call i32 (ptr, ...) @slurm_error(ptr noundef @.str.2)
  store i32 -1, ptr %6, align 4
  store i32 1, ptr %21, align 4
  br label %151

76:                                               ; preds = %71
  %77 = load i32, ptr %13, align 4
  %78 = icmp eq i32 %77, 0
  br i1 %78, label %79, label %92

79:                                               ; preds = %76
  br label %80

80:                                               ; preds = %79
  br label %81

81:                                               ; preds = %80
  %82 = call i32 @slurm_get_log_level()
  %83 = icmp sge i32 %82, 5
  br i1 %83, label %84, label %86

84:                                               ; preds = %81
  %85 = load ptr, ptr %19, align 8
  call void (i32, ptr, ...) @slurm_log_var(i32 noundef 5, ptr noundef @.str.7, ptr noundef @plugin_type, ptr noundef @__func__._handle_pmi1_mcmd_buf, ptr noundef %85)
  br label %86

86:                                               ; preds = %84, %81
  br label %87

87:                                               ; preds = %86
  br label %88

88:                                               ; preds = %87
  br label %89

89:                                               ; preds = %88
  br label %90

90:                                               ; preds = %89
  %91 = call i32 @usleep(i32 noundef 100)
  br label %105

92:                                               ; preds = %76
  %93 = load i32, ptr %13, align 4
  %94 = load i32, ptr %12, align 4
  %95 = add nsw i32 %94, %93
  store i32 %95, ptr %12, align 4
  %96 = load ptr, ptr %19, align 8
  %97 = load i32, ptr %12, align 4
  %98 = load i32, ptr %14, align 4
  %99 = sub nsw i32 %97, %98
  %100 = sext i32 %99 to i64
  %101 = getelementptr inbounds i8, ptr %96, i64 %100
  %102 = load i32, ptr %14, align 4
  %103 = sext i32 %102 to i64
  %104 = call i32 @slurm_xstrncmp(ptr noundef %101, ptr noundef @.str.6, i64 noundef %103)
  store i32 %104, ptr %15, align 4
  br label %105

105:                                              ; preds = %92, %90
  br label %106

106:                                              ; preds = %105
  br label %34, !llvm.loop !12

107:                                              ; preds = %34
  %108 = load ptr, ptr %19, align 8
  %109 = load i32, ptr %12, align 4
  %110 = sext i32 %109 to i64
  %111 = getelementptr inbounds i8, ptr %108, i64 %110
  store i8 0, ptr %111, align 1
  %112 = load ptr, ptr %19, align 8
  store ptr %112, ptr %17, align 8
  store ptr null, ptr %18, align 8
  br label %113

113:                                              ; preds = %144, %107
  %114 = load ptr, ptr %17, align 8
  %115 = getelementptr inbounds i8, ptr %114, i64 0
  %116 = load i8, ptr %115, align 1
  %117 = sext i8 %116 to i32
  %118 = icmp ne i32 %117, 0
  br i1 %118, label %119, label %149

119:                                              ; preds = %113
  %120 = load ptr, ptr %17, align 8
  %121 = call ptr @strstr(ptr noundef %120, ptr noundef @.str.6) #8
  store ptr %121, ptr %18, align 8
  %122 = load ptr, ptr %18, align 8
  %123 = icmp eq ptr %122, null
  br i1 %123, label %124, label %126

124:                                              ; preds = %119
  %125 = call i32 (ptr, ...) @slurm_error(ptr noundef @.str.8)
  store i32 -1, ptr %20, align 4
  br label %149

126:                                              ; preds = %119
  %127 = load ptr, ptr %18, align 8
  store i8 0, ptr %127, align 1
  %128 = load ptr, ptr %18, align 8
  %129 = load ptr, ptr %17, align 8
  %130 = ptrtoint ptr %128 to i64
  %131 = ptrtoint ptr %129 to i64
  %132 = sub i64 %130, %131
  %133 = trunc i64 %132 to i32
  store i32 %133, ptr %12, align 4
  %134 = load ptr, ptr %17, align 8
  %135 = call ptr @slurm_xstrdup(ptr noundef %134)
  store ptr %135, ptr %16, align 8
  %136 = load i32, ptr %7, align 4
  %137 = load i32, ptr %8, align 4
  %138 = load i32, ptr %12, align 4
  %139 = load ptr, ptr %16, align 8
  %140 = call i32 @_handle_pmi1_cmd_buf(i32 noundef %136, i32 noundef %137, i32 noundef %138, ptr noundef %139)
  store i32 %140, ptr %20, align 4
  %141 = load i32, ptr %20, align 4
  %142 = icmp ne i32 %141, 0
  br i1 %142, label %143, label %144

143:                                              ; preds = %126
  br label %149

144:                                              ; preds = %126
  %145 = load ptr, ptr %18, align 8
  %146 = load i32, ptr %14, align 4
  %147 = sext i32 %146 to i64
  %148 = getelementptr inbounds i8, ptr %145, i64 %147
  store ptr %148, ptr %17, align 8
  br label %113, !llvm.loop !13

149:                                              ; preds = %143, %124, %113
  %150 = load i32, ptr %20, align 4
  store i32 %150, ptr %6, align 4
  store i32 1, ptr %21, align 4
  br label %151

151:                                              ; preds = %149, %74
  call void @llvm.lifetime.end.p0(i64 4, ptr %20) #6
  call void @llvm.lifetime.end.p0(i64 8, ptr %19) #6
  call void @llvm.lifetime.end.p0(i64 8, ptr %18) #6
  call void @llvm.lifetime.end.p0(i64 8, ptr %17) #6
  call void @llvm.lifetime.end.p0(i64 8, ptr %16) #6
  call void @llvm.lifetime.end.p0(i64 4, ptr %15) #6
  call void @llvm.lifetime.end.p0(i64 4, ptr %14) #6
  call void @llvm.lifetime.end.p0(i64 4, ptr %13) #6
  call void @llvm.lifetime.end.p0(i64 4, ptr %12) #6
  %152 = load i32, ptr %6, align 4
  ret i32 %152
}

; Function Attrs: nounwind uwtable
define dso_local i32 @handle_pmi1_cmd(i32 noundef %0, i32 noundef %1) #0 {
  %3 = alloca i32, align 4
  %4 = alloca i32, align 4
  %5 = alloca i32, align 4
  %6 = alloca ptr, align 8
  %7 = alloca i32, align 4
  %8 = alloca i32, align 4
  %9 = alloca i32, align 4
  %10 = alloca i32, align 4
  %11 = alloca i32, align 4
  store i32 %0, ptr %4, align 4
  store i32 %1, ptr %5, align 4
  call void @llvm.lifetime.start.p0(i64 8, ptr %6) #6
  store ptr null, ptr %6, align 8
  call void @llvm.lifetime.start.p0(i64 4, ptr %7) #6
  call void @llvm.lifetime.start.p0(i64 4, ptr %8) #6
  call void @llvm.lifetime.start.p0(i64 4, ptr %9) #6
  call void @llvm.lifetime.start.p0(i64 4, ptr %10) #6
  store i32 0, ptr %10, align 4
  br label %12

12:                                               ; preds = %2
  br label %13

13:                                               ; preds = %12
  %14 = call i32 @slurm_get_log_level()
  %15 = icmp sge i32 %14, 7
  br i1 %15, label %16, label %17

16:                                               ; preds = %13
  call void (i32, ptr, ...) @slurm_log_var(i32 noundef 7, ptr noundef @.str, ptr noundef @plugin_type, ptr noundef @__func__.handle_pmi1_cmd)
  br label %17

17:                                               ; preds = %16, %13
  br label %18

18:                                               ; preds = %17
  br label %19

19:                                               ; preds = %18
  br label %20

20:                                               ; preds = %19
  br label %21

21:                                               ; preds = %20
  store i32 1024, ptr %9, align 4
  %22 = load i32, ptr %9, align 4
  %23 = add nsw i32 %22, 1
  %24 = sext i32 %23 to i64
  %25 = call ptr @slurm_xcalloc(i64 noundef 1, i64 noundef %24, i1 noundef zeroext true, i1 noundef zeroext false, ptr noundef @.str.1, i32 noundef 613, ptr noundef @__func__.handle_pmi1_cmd)
  store ptr %25, ptr %6, align 8
  br label %26

26:                                               ; preds = %40, %21
  %27 = load i32, ptr %4, align 4
  %28 = load ptr, ptr %6, align 8
  %29 = load i32, ptr %9, align 4
  %30 = sext i32 %29 to i64
  %31 = call i64 @read(i32 noundef %27, ptr noundef %28, i64 noundef %30)
  %32 = trunc i64 %31 to i32
  store i32 %32, ptr %7, align 4
  %33 = icmp slt i32 %32, 0
  br i1 %33, label %34, label %38

34:                                               ; preds = %26
  %35 = call ptr @__errno_location() #7
  %36 = load i32, ptr %35, align 4
  %37 = icmp eq i32 %36, 4
  br label %38

38:                                               ; preds = %34, %26
  %39 = phi i1 [ false, %26 ], [ %37, %34 ]
  br i1 %39, label %40, label %41

40:                                               ; preds = %38
  br label %26, !llvm.loop !8

41:                                               ; preds = %38
  %42 = load i32, ptr %7, align 4
  %43 = icmp slt i32 %42, 0
  br i1 %43, label %44, label %46

44:                                               ; preds = %41
  %45 = call i32 (ptr, ...) @slurm_error(ptr noundef @.str.2)
  call void @slurm_xfree(ptr noundef %6)
  store i32 -1, ptr %3, align 4
  store i32 1, ptr %11, align 4
  br label %86

46:                                               ; preds = %41
  %47 = load i32, ptr %7, align 4
  %48 = icmp eq i32 %47, 0
  br i1 %48, label %49, label %51

49:                                               ; preds = %46
  %50 = call i32 (ptr, ...) @slurm_error(ptr noundef @.str.3)
  call void @slurm_xfree(ptr noundef %6)
  store i32 -1, ptr %3, align 4
  store i32 1, ptr %11, align 4
  br label %86

51:                                               ; preds = %46
  br label %52

52:                                               ; preds = %51
  store i32 5, ptr %8, align 4
  %53 = load ptr, ptr %6, align 8
  %54 = load i32, ptr %8, align 4
  %55 = sext i32 %54 to i64
  %56 = call i32 @slurm_xstrncmp(ptr noundef %53, ptr noundef @.str.4, i64 noundef %55)
  %57 = icmp ne i32 %56, 0
  br i1 %57, label %64, label %58

58:                                               ; preds = %52
  %59 = load i32, ptr %4, align 4
  %60 = load i32, ptr %5, align 4
  %61 = load i32, ptr %9, align 4
  %62 = load i32, ptr %7, align 4
  %63 = call i32 @_handle_pmi1_mcmd_buf(i32 noundef %59, i32 noundef %60, i32 noundef %61, i32 noundef %62, ptr noundef %6)
  store i32 %63, ptr %10, align 4
  call void @slurm_xfree(ptr noundef %6)
  br label %74

64:                                               ; preds = %52
  %65 = load ptr, ptr %6, align 8
  %66 = load i32, ptr %7, align 4
  %67 = sext i32 %66 to i64
  %68 = getelementptr inbounds i8, ptr %65, i64 %67
  store i8 0, ptr %68, align 1
  %69 = load i32, ptr %4, align 4
  %70 = load i32, ptr %5, align 4
  %71 = load i32, ptr %7, align 4
  %72 = load ptr, ptr %6, align 8
  %73 = call i32 @_handle_pmi1_cmd_buf(i32 noundef %69, i32 noundef %70, i32 noundef %71, ptr noundef %72)
  store i32 %73, ptr %10, align 4
  br label %74

74:                                               ; preds = %64, %58
  br label %75

75:                                               ; preds = %74
  br label %76

76:                                               ; preds = %75
  %77 = call i32 @slurm_get_log_level()
  %78 = icmp sge i32 %77, 7
  br i1 %78, label %79, label %80

79:                                               ; preds = %76
  call void (i32, ptr, ...) @slurm_log_var(i32 noundef 7, ptr noundef @.str.5, ptr noundef @plugin_type, ptr noundef @__func__.handle_pmi1_cmd)
  br label %80

80:                                               ; preds = %79, %76
  br label %81

81:                                               ; preds = %80
  br label %82

82:                                               ; preds = %81
  br label %83

83:                                               ; preds = %82
  br label %84

84:                                               ; preds = %83
  %85 = load i32, ptr %10, align 4
  store i32 %85, ptr %3, align 4
  store i32 1, ptr %11, align 4
  br label %86

86:                                               ; preds = %84, %49, %44
  call void @llvm.lifetime.end.p0(i64 4, ptr %10) #6
  call void @llvm.lifetime.end.p0(i64 4, ptr %9) #6
  call void @llvm.lifetime.end.p0(i64 4, ptr %8) #6
  call void @llvm.lifetime.end.p0(i64 4, ptr %7) #6
  call void @llvm.lifetime.end.p0(i64 8, ptr %6) #6
  %87 = load i32, ptr %3, align 4
  ret i32 %87
}