; Function Attrs: nounwind uwtable
define dso_local i32 @handle_pmi1_cmd(i32 noundef %0, i32 noundef %1) local_unnamed_addr #0 {
  %3 = alloca ptr, align 8
  %4 = alloca ptr, align 8
  call void @llvm.lifetime.start.p0(i64 8, ptr nonnull %4) #8
  %5 = tail call i32 @slurm_get_log_level() #8
  %6 = icmp sgt i32 %5, 6
  br i1 %6, label %7, label %8

7:                                                ; preds = %2
  tail call void (i32, ptr, ...) @slurm_log_var(i32 noundef 7, ptr noundef nonnull @.str, ptr noundef nonnull @plugin_type, ptr noundef nonnull @__func__.handle_pmi1_cmd) #8
  br label %8

8:                                                ; preds = %7, %2
  %9 = tail call ptr @slurm_xcalloc(i64 noundef 1, i64 noundef 1025, i1 noundef zeroext true, i1 noundef zeroext false, ptr noundef nonnull @.str.1, i32 noundef 613, ptr noundef nonnull @__func__.handle_pmi1_cmd) #8
  store ptr %9, ptr %4, align 8
  br label %10

10:                                               ; preds = %14, %8
  %11 = tail call i64 @read(i32 noundef %0, ptr noundef %9, i64 noundef 1024) #8
  %12 = trunc i64 %11 to i32
  %13 = icmp slt i32 %12, 0
  br i1 %13, label %14, label %.critedge18

14:                                               ; preds = %10
  %15 = tail call ptr @__errno_location() #9
  %16 = load i32, ptr %15, align 4
  %17 = icmp eq i32 %16, 4
  br i1 %17, label %10, label %.critedge, !llvm.loop !8

.critedge:                                        ; preds = %14
  %18 = tail call i32 (ptr, ...) @slurm_error(ptr noundef nonnull @.str.2) #8
  call void @slurm_xfree(ptr noundef nonnull %4) #8
  br label %92

.critedge18:                                      ; preds = %10
  %19 = icmp eq i32 %12, 0
  br i1 %19, label %20, label %22

20:                                               ; preds = %.critedge18
  %21 = tail call i32 (ptr, ...) @slurm_error(ptr noundef nonnull @.str.3) #8
  call void @slurm_xfree(ptr noundef nonnull %4) #8
  br label %92

22:                                               ; preds = %.critedge18
  %23 = tail call i32 @slurm_xstrncmp(ptr noundef %9, ptr noundef nonnull @.str.4, i64 noundef 5) #8
  %.not = icmp eq i32 %23, 0
  br i1 %.not, label %24, label %83

24:                                               ; preds = %22
  call void @llvm.lifetime.start.p0(i64 8, ptr nonnull %3) #8
  store ptr %9, ptr %3, align 8
  %25 = and i64 %11, 2147483647
  %26 = getelementptr i8, ptr %9, i64 %25
  %27 = getelementptr i8, ptr %26, i64 -7
  %28 = tail call i32 @slurm_xstrncmp(ptr noundef %27, ptr noundef nonnull @.str.6, i64 noundef 7) #8
  %.not55.i = icmp eq i32 %28, 0
  br i1 %.not55.i, label %._crit_edge.i, label %.lr.ph.i

.lr.ph.i:                                         ; preds = %24, %65
  %.03958.i = phi i32 [ %.140.i, %65 ], [ %28, %24 ]
  %.04257.i = phi i32 [ %.143.i, %65 ], [ 1024, %24 ]
  %.04456.i = phi i32 [ %.145.i, %65 ], [ %12, %24 ]
  %29 = icmp eq i32 %.04456.i, %.04257.i
  br i1 %29, label %30, label %36

30:                                               ; preds = %.lr.ph.i
  %31 = add nuw nsw i32 %.04257.i, 1024
  %32 = add nuw nsw i32 %.04257.i, 1025
  %33 = zext nneg i32 %32 to i64
  %34 = call ptr @slurm_xrecalloc(ptr noundef nonnull %3, i64 noundef 1, i64 noundef %33, i1 noundef zeroext true, i1 noundef zeroext false, ptr noundef nonnull @.str.1, i32 noundef 562, ptr noundef nonnull @__func__._handle_pmi1_mcmd_buf) #8
  %35 = load ptr, ptr %3, align 8
  store ptr %35, ptr %4, align 8
  br label %36

36:                                               ; preds = %30, %.lr.ph.i
  %.143.i = phi i32 [ %31, %30 ], [ %.04257.i, %.lr.ph.i ]
  %37 = zext nneg i32 %.04456.i to i64
  %38 = sub nsw i32 %.143.i, %.04456.i
  %39 = sext i32 %38 to i64
  br label %40

40:                                               ; preds = %46, %36
  %41 = load ptr, ptr %3, align 8
  %42 = getelementptr inbounds nuw i8, ptr %41, i64 %37
  %43 = call i64 @read(i32 noundef %0, ptr noundef %42, i64 noundef %39) #8
  %44 = trunc i64 %43 to i32
  %45 = icmp slt i32 %44, 0
  br i1 %45, label %46, label %.critedge52.i

46:                                               ; preds = %40
  %47 = tail call ptr @__errno_location() #9
  %48 = load i32, ptr %47, align 4
  %49 = icmp eq i32 %48, 4
  br i1 %49, label %40, label %.loopexit.sink.split.i, !llvm.loop !11

.critedge52.i:                                    ; preds = %40
  %50 = icmp eq i32 %44, 0
  br i1 %50, label %51, label %58

51:                                               ; preds = %.critedge52.i
  %52 = call i32 @slurm_get_log_level() #8
  %53 = icmp sgt i32 %52, 4
  br i1 %53, label %54, label %56

54:                                               ; preds = %51
  %55 = load ptr, ptr %3, align 8
  call void (i32, ptr, ...) @slurm_log_var(i32 noundef 5, ptr noundef nonnull @.str.7, ptr noundef nonnull @plugin_type, ptr noundef nonnull @__func__._handle_pmi1_mcmd_buf, ptr noundef %55) #8
  br label %56

56:                                               ; preds = %54, %51
  %57 = call i32 @usleep(i32 noundef 100) #8
  br label %65

58:                                               ; preds = %.critedge52.i
  %59 = add nuw nsw i32 %.04456.i, %44
  %60 = load ptr, ptr %3, align 8
  %61 = sext i32 %59 to i64
  %62 = getelementptr i8, ptr %60, i64 %61
  %63 = getelementptr i8, ptr %62, i64 -7
  %64 = call i32 @slurm_xstrncmp(ptr noundef %63, ptr noundef nonnull @.str.6, i64 noundef 7) #8
  br label %65

65:                                               ; preds = %58, %56
  %.145.i = phi i32 [ %.04456.i, %56 ], [ %59, %58 ]
  %.140.i = phi i32 [ %.03958.i, %56 ], [ %64, %58 ]
  %.not.i = icmp eq i32 %.140.i, 0
  br i1 %.not.i, label %._crit_edge.loopexit.i, label %.lr.ph.i, !llvm.loop !12

._crit_edge.loopexit.i:                           ; preds = %65
  %.pre.i = load ptr, ptr %3, align 8
  %.pre67.i = zext nneg i32 %.145.i to i64
  br label %._crit_edge.i

._crit_edge.i:                                    ; preds = %._crit_edge.loopexit.i, %24
  %.pre-phi.i = phi i64 [ %.pre67.i, %._crit_edge.loopexit.i ], [ %25, %24 ]
  %66 = phi ptr [ %.pre.i, %._crit_edge.loopexit.i ], [ %9, %24 ]
  %67 = getelementptr inbounds nuw i8, ptr %66, i64 %.pre-phi.i
  store i8 0, ptr %67, align 1
  %68 = load ptr, ptr %3, align 8
  %69 = load i8, ptr %68, align 1
  %.not5059.i = icmp eq i8 %69, 0
  br i1 %.not5059.i, label %_handle_pmi1_mcmd_buf.exit, label %.lr.ph62.i

70:                                               ; preds = %75
  %71 = getelementptr inbounds nuw i8, ptr %73, i64 7
  %72 = load i8, ptr %71, align 1
  %.not50.i = icmp eq i8 %72, 0
  br i1 %.not50.i, label %_handle_pmi1_mcmd_buf.exit, label %.lr.ph62.i, !llvm.loop !13

.lr.ph62.i:                                       ; preds = %._crit_edge.i, %70
  %.03860.i = phi ptr [ %71, %70 ], [ %68, %._crit_edge.i ]
  %73 = call ptr @strstr(ptr noundef nonnull dereferenceable(1) %.03860.i, ptr noundef nonnull dereferenceable(1) @.str.6) #10
  %74 = icmp eq ptr %73, null
  br i1 %74, label %.loopexit.sink.split.i, label %75

75:                                               ; preds = %.lr.ph62.i
  store i8 0, ptr %73, align 1
  %76 = ptrtoint ptr %73 to i64
  %77 = ptrtoint ptr %.03860.i to i64
  %78 = sub i64 %76, %77
  %79 = trunc i64 %78 to i32
  %80 = call ptr @slurm_xstrdup(ptr noundef nonnull %.03860.i) #8
  %81 = call fastcc i32 @_handle_pmi1_cmd_buf(i32 noundef %0, i32 noundef %1, i32 noundef %79, ptr noundef %80)
  %.not51.i = icmp eq i32 %81, 0
  br i1 %.not51.i, label %70, label %_handle_pmi1_mcmd_buf.exit

.loopexit.sink.split.i:                           ; preds = %46, %.lr.ph62.i
  %.str.8.sink.i = phi ptr [ @.str.8, %.lr.ph62.i ], [ @.str.2, %46 ]
  %82 = call i32 (ptr, ...) @slurm_error(ptr noundef nonnull %.str.8.sink.i) #8
  br label %_handle_pmi1_mcmd_buf.exit

_handle_pmi1_mcmd_buf.exit:                       ; preds = %70, %75, %._crit_edge.i, %.loopexit.sink.split.i
  %.041.i = phi i32 [ 0, %._crit_edge.i ], [ -1, %.loopexit.sink.split.i ], [ 0, %70 ], [ %81, %75 ]
  call void @llvm.lifetime.end.p0(i64 8, ptr nonnull %3) #8
  call void @slurm_xfree(ptr noundef nonnull %4) #8
  br label %88

83:                                               ; preds = %22
  %84 = and i64 %11, 2147483647
  %85 = getelementptr inbounds nuw i8, ptr %9, i64 %84
  store i8 0, ptr %85, align 1
  %86 = load ptr, ptr %4, align 8
  %87 = tail call fastcc i32 @_handle_pmi1_cmd_buf(i32 noundef %0, i32 noundef %1, i32 noundef %12, ptr noundef %86)
  br label %88

88:                                               ; preds = %83, %_handle_pmi1_mcmd_buf.exit
  %.0 = phi i32 [ %87, %83 ], [ %.041.i, %_handle_pmi1_mcmd_buf.exit ]
  %89 = call i32 @slurm_get_log_level() #8
  %90 = icmp sgt i32 %89, 6
  br i1 %90, label %91, label %92

91:                                               ; preds = %88
  call void (i32, ptr, ...) @slurm_log_var(i32 noundef 7, ptr noundef nonnull @.str.5, ptr noundef nonnull @plugin_type, ptr noundef nonnull @__func__.handle_pmi1_cmd) #8
  br label %92

92:                                               ; preds = %88, %91, %20, %.critedge
  %.016 = phi i32 [ -1, %.critedge ], [ -1, %20 ], [ %.0, %91 ], [ %.0, %88 ]
  call void @llvm.lifetime.end.p0(i64 8, ptr nonnull %4) #8
  ret i32 %.016
}